#include <math.h>
#include <stdio.h>
#include <stdlib.h>
#include <string.h>

void main()
{
	int i,l,k,g[1000][16],o;
	for(i=0;i<=999;i++)
	{
		int s=0;
		for(l=0;l<16;l++)
		{
			scanf("%d",&g[i][l]);
			if(g[i][l]==0)break;
		}
		if(g[i][0]==-1)break;
		for(o=0;o<14&&g[i][o]>0;o++)
		{
			for(k=o+1;k<15;k++)
			{
				if(g[i][k]-2*g[i][o]==0||g[i][o]-2*g[i][k]==0)
					s=s+1;
			}
		}
		printf("%d\n",s);
	}
	
}